(dp0
S'show_imports'
p1
I0
sS'prj_name'
p2
S'OpenGL Spheres'
p3
sS'docformat'
p4
S'epytext'
p5
sS'inheritance'
p6
S'grouped'
p7
sS'help'
p8
NsS'modules'
p9
(S'/home/eduardo/python/projects/mqueue/mainprogram.py'
p10
S'/home/eduardo/python/projects/mqueue/animation.py'
p11
S'/home/eduardo/python/projects/mqueue/parameters.py'
p12
S'/home/eduardo/python/projects/mqueue/signals.py'
p13
S'/home/eduardo/python/projects/mqueue/wavsignal.py'
p14
S'/home/eduardo/python/projects/mqueue/hdfsignal.py'
p15
tp16
sS'private'
p17
I1
sS'prj_url'
p18
NsS'introspect_or_parse'
p19
S'both'
p20
sS'frames'
p21
I1
sS'css'
p22
S'default'
p23
sS'target'
p24
S'/home/eduardo/python/projects/mqueue/uml'
p25
s.